; Function Attrs: inlinehint nounwind uwtable
define internal fastcc zeroext i1 @lxb_html_tree_insertion_mode_in_body_rbrtc(ptr noundef %0, ptr noundef %1) unnamed_addr #3 {
  %3 = tail call ptr @lxb_html_tree_element_in_scope(ptr noundef %0, i64 noundef 158, i64 noundef 2, i32 noundef 8) #6
  %.not = icmp eq ptr %3, null
  br i1 %.not, label %5, label %4

4:                                                ; preds = %2
  tail call void @lxb_html_tree_generate_implied_end_tags(ptr noundef %0, i64 noundef 0, i64 noundef 0) #6
  br label %5

5:                                                ; preds = %4, %2
  %6 = getelementptr i8, ptr %0, i64 32
  %.val = load ptr, ptr %6, align 8, !tbaa !33
  %7 = getelementptr inbounds nuw i8, ptr %.val, i64 16
  %8 = load i64, ptr %7, align 8, !tbaa !34
  %9 = icmp eq i64 %8, 0
  br i1 %9, label %lxb_html_tree_current_node.exit, label %10

10:                                               ; preds = %5
  %11 = load ptr, ptr %.val, align 8, !tbaa !36
  %12 = getelementptr ptr, ptr %11, i64 %8
  %13 = getelementptr i8, ptr %12, i64 -8
  %14 = load ptr, ptr %13, align 8, !tbaa !37
  br label %lxb_html_tree_current_node.exit

lxb_html_tree_current_node.exit:                  ; preds = %5, %10
  %.0.i = phi ptr [ %14, %10 ], [ null, %5 ]
  %15 = getelementptr inbounds nuw i8, ptr %.0.i, i64 8
  %16 = load i64, ptr %15, align 8, !tbaa !38
  %17 = icmp eq i64 %16, 158
  br i1 %17, label %lxb_html_tree_node_is.exit, label %lxb_html_tree_node_is.exit.thread

lxb_html_tree_node_is.exit:                       ; preds = %lxb_html_tree_current_node.exit
  %18 = getelementptr inbounds nuw i8, ptr %.0.i, i64 24
  %19 = load i64, ptr %18, align 8, !tbaa !42
  %20 = icmp eq i64 %19, 2
  br i1 %20, label %21, label %lxb_html_tree_node_is.exit.thread

lxb_html_tree_node_is.exit.thread:                ; preds = %lxb_html_tree_current_node.exit, %lxb_html_tree_node_is.exit
  tail call void @lxb_html_tree_parse_error(ptr noundef nonnull %0, ptr noundef %1, i32 noundef 23) #6
  br label %21

21:                                               ; preds = %lxb_html_tree_node_is.exit.thread, %lxb_html_tree_node_is.exit
  %22 = tail call ptr @lxb_html_tree_insert_foreign_element(ptr noundef nonnull %0, ptr noundef %1, i64 noundef 2) #6
  %23 = icmp eq ptr %22, null
  br i1 %23, label %24, label %27

24:                                               ; preds = %21
  %25 = getelementptr inbounds nuw i8, ptr %0, i64 112
  store i32 2, ptr %25, align 8, !tbaa !22
  %26 = tail call zeroext i1 @lxb_html_tree_process_abort(ptr noundef nonnull %0) #6
  br label %27

27:                                               ; preds = %21, %24
  %.0 = phi i1 [ %26, %24 ], [ true, %21 ]
  ret i1 %.0
}